; Function Attrs: mustprogress nounwind uwtable
define hidden void @_ZN8CallInfo10set_handleEP5KlassRK12methodHandle6HandleP10JavaThread(ptr noundef nonnull align 8 dereferenceable(64) %0, ptr noundef %1, ptr noundef nonnull align 8 dereferenceable(16) %2, ptr %3, ptr noundef %4) local_unnamed_addr #0 align 2 {
  %6 = load ptr, ptr %2, align 8
  %.not = icmp eq ptr %6, null
  br i1 %.not, label %7, label %9

7:                                                ; preds = %5
  %8 = load ptr, ptr @g_assert_poison, align 8
  store i8 88, ptr %8, align 1
  tail call void (ptr, i32, ptr, ptr, ...) @_Z15report_vm_errorPKciS0_S0_z(ptr noundef nonnull @.str, i32 noundef 108, ptr noundef nonnull @.str.4, ptr noundef nonnull @.str.5) #11
  unreachable

9:                                                ; preds = %5
  store ptr %1, ptr %0, align 8
  %10 = getelementptr inbounds i8, ptr %0, i64 8
  %11 = tail call noundef nonnull align 8 dereferenceable(16) ptr @_ZN12methodHandleaSERKS_(ptr noundef nonnull align 8 dereferenceable(16) %10, ptr noundef nonnull align 8 dereferenceable(16) %2) #10
  %12 = getelementptr inbounds i8, ptr %0, i64 24
  %13 = tail call noundef nonnull align 8 dereferenceable(16) ptr @_ZN12methodHandleaSERKS_(ptr noundef nonnull align 8 dereferenceable(16) %12, ptr noundef nonnull align 8 dereferenceable(16) %2) #10
  %14 = getelementptr inbounds i8, ptr %0, i64 40
  store i32 0, ptr %14, align 8
  %15 = getelementptr inbounds i8, ptr %0, i64 44
  store i32 -2, ptr %15, align 4
  %16 = getelementptr inbounds i8, ptr %0, i64 48
  store i64 0, ptr %16, align 8
  %17 = load ptr, ptr %2, align 8
  %.not.i = icmp eq ptr %17, null
  br i1 %.not.i, label %_ZN8CallInfo10set_commonEP5KlassRK12methodHandleS4_NS_8CallKindEiP10JavaThread.exit, label %18

18:                                               ; preds = %9
  tail call void @_ZN17CompilationPolicy19compile_if_requiredERK12methodHandleP10JavaThread(ptr noundef nonnull align 8 dereferenceable(16) %2, ptr noundef %4) #10
  br label %_ZN8CallInfo10set_commonEP5KlassRK12methodHandleS4_NS_8CallKindEiP10JavaThread.exit

_ZN8CallInfo10set_commonEP5KlassRK12methodHandleS4_NS_8CallKindEiP10JavaThread.exit: ; preds = %9, %18
  %19 = getelementptr inbounds i8, ptr %4, i64 8
  %20 = load ptr, ptr %19, align 8
  %.not7 = icmp eq ptr %20, null
  br i1 %.not7, label %21, label %22

21:                                               ; preds = %_ZN8CallInfo10set_commonEP5KlassRK12methodHandleS4_NS_8CallKindEiP10JavaThread.exit
  store ptr %3, ptr %16, align 8
  br label %22

22:                                               ; preds = %_ZN8CallInfo10set_commonEP5KlassRK12methodHandleS4_NS_8CallKindEiP10JavaThread.exit, %21
  ret void
}